target datalayout = "e-m:e-p270:32:32-p271:32:32-p272:64:64-i64:64-i128:128-f80:128-n8:16:32:64-S128"
target triple = "x86_64-pc-linux-gnu"

%struct.hs_stream = type { ptr, i64 }

; Function Attrs: nounwind uwtable
define dso_local i32 @hs_compress_stream(ptr noundef %0, ptr noundef %1, i64 noundef %2, ptr noundef %3) #0 {
  %5 = alloca i32, align 4
  %6 = alloca ptr, align 8
  %7 = alloca ptr, align 8
  %8 = alloca i64, align 8
  %9 = alloca ptr, align 8
  %10 = alloca ptr, align 8
  %11 = alloca i64, align 8
  %12 = alloca i32, align 4
  store ptr %0, ptr %6, align 8
  store ptr %1, ptr %7, align 8
  store i64 %2, ptr %8, align 8
  store ptr %3, ptr %9, align 8
  %13 = load ptr, ptr %6, align 8
  %14 = icmp ne ptr %13, null
  br i1 %14, label %15, label %19

15:                                               ; preds = %4
  %16 = load ptr, ptr %9, align 8
  %17 = icmp ne ptr %16, null
  %18 = xor i1 %17, true
  br label %19

19:                                               ; preds = %15, %4
  %20 = phi i1 [ true, %4 ], [ %18, %15 ]
  %21 = xor i1 %20, true
  %22 = xor i1 %21, true
  %23 = zext i1 %22 to i32
  %24 = sext i32 %23 to i64
  %25 = call i64 @llvm.expect.i64(i64 %24, i64 0)
  %26 = icmp ne i64 %25, 0
  br i1 %26, label %27, label %28

27:                                               ; preds = %19
  store i32 -1, ptr %5, align 4
  br label %67

28:                                               ; preds = %19
  %29 = load i64, ptr %8, align 8
  %30 = icmp ne i64 %29, 0
  br i1 %30, label %31, label %35

31:                                               ; preds = %28
  %32 = load ptr, ptr %7, align 8
  %33 = icmp ne ptr %32, null
  %34 = xor i1 %33, true
  br label %35

35:                                               ; preds = %31, %28
  %36 = phi i1 [ false, %28 ], [ %34, %31 ]
  %37 = xor i1 %36, true
  %38 = xor i1 %37, true
  %39 = zext i1 %38 to i32
  %40 = sext i32 %39 to i64
  %41 = call i64 @llvm.expect.i64(i64 %40, i64 0)
  %42 = icmp ne i64 %41, 0
  br i1 %42, label %43, label %44

43:                                               ; preds = %35
  store i32 -1, ptr %5, align 4
  br label %67

44:                                               ; preds = %35
  call void @llvm.lifetime.start.p0(i64 8, ptr %10) #13
  %45 = load ptr, ptr %6, align 8
  %46 = getelementptr inbounds nuw %struct.hs_stream, ptr %45, i32 0, i32 0
  %47 = load ptr, ptr %46, align 8
  store ptr %47, ptr %10, align 8
  call void @llvm.lifetime.start.p0(i64 8, ptr %11) #13
  %48 = load ptr, ptr %10, align 8
  %49 = load ptr, ptr %6, align 8
  %50 = call i64 @size_compress_stream(ptr noundef %48, ptr noundef %49)
  store i64 %50, ptr %11, align 8
  br label %51

51:                                               ; preds = %44
  br label %52

52:                                               ; preds = %51
  br label %53

53:                                               ; preds = %52
  %54 = load i64, ptr %11, align 8
  %55 = load ptr, ptr %9, align 8
  store i64 %54, ptr %55, align 8
  %56 = load i64, ptr %8, align 8
  %57 = load i64, ptr %11, align 8
  %58 = icmp ult i64 %56, %57
  br i1 %58, label %59, label %60

59:                                               ; preds = %53
  store i32 -12, ptr %5, align 4
  store i32 1, ptr %12, align 4
  br label %66

60:                                               ; preds = %53
  %61 = load ptr, ptr %7, align 8
  %62 = load i64, ptr %11, align 8
  %63 = load ptr, ptr %10, align 8
  %64 = load ptr, ptr %6, align 8
  %65 = call i64 @compress_stream(ptr noundef %61, i64 noundef %62, ptr noundef %63, ptr noundef %64)
  store i32 0, ptr %5, align 4
  store i32 1, ptr %12, align 4
  br label %66

66:                                               ; preds = %60, %59
  call void @llvm.lifetime.end.p0(i64 8, ptr %11) #13
  call void @llvm.lifetime.end.p0(i64 8, ptr %10) #13
  br label %67

67:                                               ; preds = %66, %43, %27
  %68 = load i32, ptr %5, align 4
  ret i32 %68
}