; Function Attrs: nounwind uwtable
define dso_local range(i32 -12, 1) i32 @hs_compress_stream(ptr noundef %0, ptr noundef %1, i64 noundef %2, ptr noundef writeonly %3) local_unnamed_addr #0 {
  %.not = icmp eq ptr %0, null
  %.not16 = icmp eq ptr %3, null
  %5 = or i1 %.not, %.not16
  br i1 %5, label %15, label %6, !prof !17

6:                                                ; preds = %4
  %7 = icmp ne i64 %2, 0
  %.not17 = icmp eq ptr %1, null
  %8 = and i1 %.not17, %7
  br i1 %8, label %15, label %9, !prof !17

9:                                                ; preds = %6
  %10 = load ptr, ptr %0, align 8
  %11 = tail call i64 @size_compress_stream(ptr noundef %10, ptr noundef nonnull %0) #13
  store i64 %11, ptr %3, align 8
  %12 = icmp ult i64 %2, %11
  br i1 %12, label %15, label %13

13:                                               ; preds = %9
  %14 = tail call i64 @compress_stream(ptr noundef %1, i64 noundef %11, ptr noundef %10, ptr noundef nonnull %0) #13
  br label %15

15:                                               ; preds = %13, %9, %6, %4
  %.0 = phi i32 [ -1, %4 ], [ -1, %6 ], [ 0, %13 ], [ -12, %9 ]
  ret i32 %.0
}